ARM GAS  /tmp/cc1OoLLb.s 			page 1


   1              		.cpu cortex-m7
   2              		.arch armv7e-m
   3              		.fpu fpv5-d16
   4              		.eabi_attribute 28, 1
   5              		.eabi_attribute 20, 1
   6              		.eabi_attribute 21, 1
   7              		.eabi_attribute 23, 3
   8              		.eabi_attribute 24, 1
   9              		.eabi_attribute 25, 1
  10              		.eabi_attribute 26, 1
  11              		.eabi_attribute 30, 1
  12              		.eabi_attribute 34, 1
  13              		.eabi_attribute 18, 4
  14              		.file	"main.c"
  15              		.text
  16              	.Ltext0:
  17              		.cfi_sections	.debug_frame
  18              		.file 1 "main.c"
  19              		.section	.text.Error_Handler,"ax",%progbits
  20              		.align	1
  21              		.global	Error_Handler
  22              		.syntax unified
  23              		.thumb
  24              		.thumb_func
  26              	Error_Handler:
  27              	.LFB145:
   1:main.c        **** /*******************************************************************************
   2:main.c        **** *                                                                              *
   3:main.c        **** * FILE:                                                                        * 
   4:main.c        **** * 		main.c                                                                 *
   5:main.c        **** *                                                                              *
   6:main.c        **** * DESCRIPTION:                                                                 * 
   7:main.c        **** * 		Processes commands recieved from a host PC, provides fine control over * 
   8:main.c        **** *       flight computer hardware resources                                     *
   9:main.c        **** *                                                                              *
  10:main.c        **** *******************************************************************************/
  11:main.c        **** 
  12:main.c        **** 
  13:main.c        **** /*------------------------------------------------------------------------------
  14:main.c        ****  Standard Includes                                                                     
  15:main.c        **** ------------------------------------------------------------------------------*/
  16:main.c        **** #include <stdbool.h>
  17:main.c        **** #include "sdr_pin_defines_A0002.h"
  18:main.c        **** 
  19:main.c        **** 
  20:main.c        **** /*------------------------------------------------------------------------------
  21:main.c        ****  Project Includes                                                                     
  22:main.c        **** ------------------------------------------------------------------------------*/
  23:main.c        **** 
  24:main.c        **** /* Application Layer */
  25:main.c        **** #include "main.h"
  26:main.c        **** #include "init.h"
  27:main.c        **** #include "fatfs.h"
  28:main.c        **** 
  29:main.c        **** /* Hardware modules */
  30:main.c        **** #include "baro.h"
  31:main.c        **** #include "buzzer.h"
ARM GAS  /tmp/cc1OoLLb.s 			page 2


  32:main.c        **** #include "commands.h"
  33:main.c        **** #include "flash.h"
  34:main.c        **** #include "ignition.h"
  35:main.c        **** #include "imu.h"
  36:main.c        **** #include "led.h"
  37:main.c        **** #include "sensor.h"
  38:main.c        **** #include "usb.h"
  39:main.c        **** 
  40:main.c        **** 
  41:main.c        **** /*------------------------------------------------------------------------------
  42:main.c        ****  MCU Peripheral Handlers                                                         
  43:main.c        **** ------------------------------------------------------------------------------*/
  44:main.c        **** I2C_HandleTypeDef  hi2c1;   /* Baro sensor    */
  45:main.c        **** I2C_HandleTypeDef  hi2c2;   /* IMU and GPS    */
  46:main.c        **** SD_HandleTypeDef   hsd1;    /* SD Card        */
  47:main.c        **** SPI_HandleTypeDef  hspi2;   /* External flash */
  48:main.c        **** TIM_HandleTypeDef  htim4;   /* Buzzer Timer   */
  49:main.c        **** UART_HandleTypeDef huart6;  /* USB            */
  50:main.c        **** 
  51:main.c        **** 
  52:main.c        **** /*------------------------------------------------------------------------------
  53:main.c        ****  Application entry point                                                      
  54:main.c        **** ------------------------------------------------------------------------------*/
  55:main.c        **** int main
  56:main.c        **** 	(
  57:main.c        ****  	void
  58:main.c        **** 	)
  59:main.c        **** {
  60:main.c        **** /*------------------------------------------------------------------------------
  61:main.c        ****  Local Variables                                                                  
  62:main.c        **** ------------------------------------------------------------------------------*/
  63:main.c        **** 
  64:main.c        **** /* USB */
  65:main.c        **** uint8_t       rx_data;                         /* USB Incoming Data Buffer    */
  66:main.c        **** uint8_t       subcommand_code;                 /* Subcommand opcode           */
  67:main.c        **** USB_STATUS    command_status;                  /* Status of USB HAL           */
  68:main.c        **** 
  69:main.c        **** /* External Flash */
  70:main.c        **** FLASH_STATUS  flash_status;                    /* Status of flash driver      */
  71:main.c        **** HFLASH_BUFFER flash_handle;                    /* Flash API buffer handle     */
  72:main.c        **** uint8_t       flash_buffer[ DEF_FLASH_BUFFER_SIZE ]; /* Flash data buffer     */
  73:main.c        **** 
  74:main.c        **** /* Barometric Pressure Sensor */
  75:main.c        **** BARO_STATUS   baro_status;                     /* Status of baro sensor       */
  76:main.c        **** BARO_CONFIG   baro_configs;                    /* Baro sensor config settings */
  77:main.c        **** 
  78:main.c        **** /* IMU */
  79:main.c        **** IMU_STATUS    imu_status;                      /* IMU return codes            */
  80:main.c        **** IMU_CONFIG    imu_configs;                     /* IMU config settings         */
  81:main.c        **** 
  82:main.c        **** /* Ignition/Parachute Ejection */
  83:main.c        **** IGN_STATUS    ign_status;                      /* Ignition status code        */
  84:main.c        **** 
  85:main.c        **** 
  86:main.c        **** /*------------------------------------------------------------------------------
  87:main.c        ****  MCU/HAL Initialization                                                                  
  88:main.c        **** ------------------------------------------------------------------------------*/
ARM GAS  /tmp/cc1OoLLb.s 			page 3


  89:main.c        **** HAL_Init();                 /* Reset peripherals, initialize flash interface 
  90:main.c        ****                                and Systick.                                   */
  91:main.c        **** SystemClock_Config();       /* System clock                                   */
  92:main.c        **** PeriphCommonClock_Config(); /* Common Peripherals clock                       */
  93:main.c        **** GPIO_Init();                /* GPIO                                           */
  94:main.c        **** USB_UART_Init();            /* USB UART                                       */
  95:main.c        **** Baro_I2C_Init();            /* Barometric pressure sensor                     */
  96:main.c        **** IMU_GPS_I2C_Init();         /* IMU and GPS                                    */
  97:main.c        **** FLASH_SPI_Init();           /* External flash chip                            */
  98:main.c        **** BUZZER_TIM_Init();          /* Buzzer                                         */
  99:main.c        **** SD_SDMMC_Init();            /* SD card SDMMC interface                        */
 100:main.c        **** MX_FATFS_Init();            /* FatFs file system middleware                   */
 101:main.c        **** 
 102:main.c        **** 
 103:main.c        **** /*------------------------------------------------------------------------------
 104:main.c        ****  Variable Initializations 
 105:main.c        **** ------------------------------------------------------------------------------*/
 106:main.c        **** 
 107:main.c        **** /* Flash Configuration */
 108:main.c        **** flash_handle.write_protected   = FLASH_WP_WRITE_ENABLED;
 109:main.c        **** flash_handle.num_bytes         = 0;
 110:main.c        **** flash_handle.address           = 0;
 111:main.c        **** flash_handle.pbuffer           = &flash_buffer[0];
 112:main.c        **** flash_handle.status_register   = 0xFF;
 113:main.c        **** flash_handle.bpl_bits          = FLASH_BPL_NONE;
 114:main.c        **** flash_handle.bpl_write_protect = FLASH_BPL_READ_WRITE;
 115:main.c        **** 
 116:main.c        **** /* Baro Configuration */
 117:main.c        **** baro_configs.enable            = BARO_PRESS_TEMP_ENABLED;
 118:main.c        **** baro_configs.mode              = BARO_NORMAL_MODE;
 119:main.c        **** baro_configs.press_OSR_setting = BARO_PRESS_OSR_X8;
 120:main.c        **** baro_configs.temp_OSR_setting  = BARO_TEMP_OSR_X1;
 121:main.c        **** baro_configs.ODR_setting       = BARO_ODR_50HZ;
 122:main.c        **** baro_configs.IIR_setting       = BARO_IIR_COEF_0;
 123:main.c        **** 
 124:main.c        **** /* IMU Configuration */
 125:main.c        **** imu_configs.sensor_enable      = IMU_ENABLE_GYRO_ACC_TEMP;
 126:main.c        **** imu_configs.acc_odr            = IMU_ODR_100;
 127:main.c        **** imu_configs.gyro_odr           = IMU_ODR_100;
 128:main.c        **** imu_configs.mag_odr            = MAG_ODR_10HZ;
 129:main.c        **** imu_configs.acc_filter         = IMU_FILTER_NORM_AVG4;
 130:main.c        **** imu_configs.gyro_filter        = IMU_FILTER_NORM_AVG4;
 131:main.c        **** imu_configs.acc_filter_mode    = IMU_FILTER_FILTER_MODE;
 132:main.c        **** imu_configs.gyro_filter_mode   = IMU_FILTER_FILTER_MODE;
 133:main.c        **** imu_configs.acc_range          = IMU_ACC_RANGE_16G;
 134:main.c        **** imu_configs.gyro_range         = IMU_GYRO_RANGE_500;
 135:main.c        **** imu_configs.mag_op_mode        = MAG_NORMAL_MODE;
 136:main.c        **** imu_configs.mag_xy_repititions = 9; /* BMM150 Regular Preset Recomendation */
 137:main.c        **** imu_configs.mag_z_repititions  = 15;
 138:main.c        **** 
 139:main.c        **** /* Module return codes */
 140:main.c        **** baro_status                    = BARO_OK;
 141:main.c        **** command_status                 = USB_OK;
 142:main.c        **** flash_status                   = FLASH_OK;
 143:main.c        **** ign_status                     = IGN_OK;
 144:main.c        **** imu_status                     = IMU_OK;
 145:main.c        **** 
ARM GAS  /tmp/cc1OoLLb.s 			page 4


 146:main.c        **** 
 147:main.c        **** /*------------------------------------------------------------------------------
 148:main.c        ****  External Hardware Initializations 
 149:main.c        **** ------------------------------------------------------------------------------*/
 150:main.c        **** 
 151:main.c        **** /* Flash Chip */
 152:main.c        **** flash_status = flash_init( &flash_handle );
 153:main.c        **** if ( flash_status != FLASH_OK )
 154:main.c        **** 	{
 155:main.c        **** 	Error_Handler();
 156:main.c        **** 	}
 157:main.c        **** 
 158:main.c        **** /* Sensor Module - Sets up the sensor sizes/offsets table */
 159:main.c        **** sensor_init();
 160:main.c        **** 
 161:main.c        **** /* Barometric pressure sensor */
 162:main.c        **** baro_status = baro_init( &baro_configs );
 163:main.c        **** if ( baro_status != BARO_OK )
 164:main.c        **** 	{
 165:main.c        **** 	Error_Handler();
 166:main.c        **** 	}
 167:main.c        **** 
 168:main.c        **** /* IMU */
 169:main.c        **** imu_status = imu_init( &imu_configs );
 170:main.c        **** if ( imu_status != IMU_OK )
 171:main.c        **** 	{
 172:main.c        **** 	Error_Handler();
 173:main.c        **** 	}
 174:main.c        **** 
 175:main.c        **** /* Indicate Successful MCU and Peripheral Hardware Setup */
 176:main.c        **** led_set_color( LED_GREEN );
 177:main.c        **** 
 178:main.c        **** 
 179:main.c        **** /*------------------------------------------------------------------------------
 180:main.c        ****  Event Loop                                                                  
 181:main.c        **** ------------------------------------------------------------------------------*/
 182:main.c        **** while (1)
 183:main.c        **** 	{
 184:main.c        **** 	/* Get sdec command from USB port */
 185:main.c        **** 	command_status = usb_receive( 
 186:main.c        ****                                  &rx_data, 
 187:main.c        ****                                  sizeof( rx_data ), 
 188:main.c        ****                                  HAL_DEFAULT_TIMEOUT 
 189:main.c        ****                                 );
 190:main.c        **** 
 191:main.c        **** 	/* Parse command input if HAL_UART_Receive doesn't timeout */
 192:main.c        **** 	if ( command_status == USB_OK )
 193:main.c        **** 		{
 194:main.c        **** 		switch( rx_data )
 195:main.c        **** 			{
 196:main.c        **** 			/*------------------------- Ping Command -------------------------*/
 197:main.c        **** 			case PING_OP:
 198:main.c        **** 				{
 199:main.c        **** 				ping();
 200:main.c        **** 				break;
 201:main.c        **** 				}
 202:main.c        **** 
ARM GAS  /tmp/cc1OoLLb.s 			page 5


 203:main.c        **** 			/*------------------------ Connect Command ------------------------*/
 204:main.c        **** 			case CONNECT_OP:
 205:main.c        **** 				{
 206:main.c        **** 				ping();
 207:main.c        **** 				break;
 208:main.c        **** 				}
 209:main.c        **** 
 210:main.c        **** 			/*------------------------ Sensor Command ------------------------*/
 211:main.c        **** 			case SENSOR_OP:
 212:main.c        **** 				{
 213:main.c        **** 				/* Receive sensor subcommand  */
 214:main.c        **** 				command_status = usb_receive( &subcommand_code         ,
 215:main.c        **** 				                              sizeof( subcommand_code ),
 216:main.c        **** 				                              HAL_DEFAULT_TIMEOUT );
 217:main.c        **** 
 218:main.c        **** 				if ( command_status == USB_OK )
 219:main.c        **** 					{
 220:main.c        **** 					/* Execute sensor subcommand */
 221:main.c        **** 					sensor_cmd_execute( subcommand_code );
 222:main.c        **** 					}
 223:main.c        **** 				else
 224:main.c        **** 					{
 225:main.c        **** 					Error_Handler();
 226:main.c        **** 					}
 227:main.c        **** 				break;
 228:main.c        **** 				}
 229:main.c        **** 
 230:main.c        **** 			/*------------------------ Ignite Command -------------------------*/
 231:main.c        **** 			case IGNITE_OP:
 232:main.c        **** 				{
 233:main.c        **** 				/* Recieve ignition subcommand over USB */
 234:main.c        **** 				command_status = usb_receive( &subcommand_code         , 
 235:main.c        ****                                               sizeof( subcommand_code ),
 236:main.c        ****                                               HAL_DEFAULT_TIMEOUT );
 237:main.c        **** 
 238:main.c        **** 				/* Execute subcommand */
 239:main.c        **** 				if ( command_status == USB_OK )
 240:main.c        **** 					{
 241:main.c        **** 					/* Execute subcommand*/
 242:main.c        **** 				    ign_status = ign_cmd_execute( subcommand_code );
 243:main.c        **** 
 244:main.c        **** 					/* Return response code to terminal */
 245:main.c        **** 					usb_transmit( &ign_status, 
 246:main.c        **** 								  sizeof( ign_status ), 
 247:main.c        **** 								  HAL_DEFAULT_TIMEOUT );
 248:main.c        **** 				    }
 249:main.c        **** 				else
 250:main.c        **** 					{
 251:main.c        **** 					/* Error: no subcommand recieved */
 252:main.c        **** 				    Error_Handler();
 253:main.c        **** 				    }
 254:main.c        **** 
 255:main.c        **** 				break; 
 256:main.c        **** 				} /* IGNITE_OP */
 257:main.c        **** 
 258:main.c        **** 			/*------------------------ Flash Command --------------------------*/
 259:main.c        **** 			case FLASH_OP:
ARM GAS  /tmp/cc1OoLLb.s 			page 6


 260:main.c        **** 				{
 261:main.c        **** 				/* Recieve flash subcommand over USB */
 262:main.c        **** 				command_status = usb_receive( &subcommand_code         , 
 263:main.c        ****                                               sizeof( subcommand_code ),
 264:main.c        ****                                               HAL_DEFAULT_TIMEOUT );
 265:main.c        **** 
 266:main.c        **** 				/* Execute subcommand */
 267:main.c        **** 				if ( command_status == USB_OK )
 268:main.c        **** 					{
 269:main.c        **** 					flash_status = flash_cmd_execute( subcommand_code,
 270:main.c        **** 			                                          &flash_handle );
 271:main.c        **** 					}
 272:main.c        **** 				else
 273:main.c        **** 					{
 274:main.c        **** 					/* Subcommand code not recieved */
 275:main.c        **** 					Error_Handler();
 276:main.c        **** 					}
 277:main.c        **** 
 278:main.c        **** 				/* Transmit status code to PC */
 279:main.c        **** 				command_status = usb_transmit( &flash_status         , 
 280:main.c        ****                                                sizeof( flash_status ),
 281:main.c        ****                                                HAL_DEFAULT_TIMEOUT );
 282:main.c        **** 
 283:main.c        **** 				if ( command_status != USB_OK )
 284:main.c        **** 					{
 285:main.c        **** 					/* Status not transmitted properly */
 286:main.c        **** 					Error_Handler();
 287:main.c        **** 					}
 288:main.c        **** 
 289:main.c        **** 				break;
 290:main.c        **** 				}
 291:main.c        **** 
 292:main.c        **** 			default:
 293:main.c        **** 				{
 294:main.c        **** 				/* Unsupported command code flash the red LED */
 295:main.c        **** 				led_error_assert();
 296:main.c        **** 				}
 297:main.c        **** 			}
 298:main.c        **** 		}
 299:main.c        **** 	else /* USB connection times out */
 300:main.c        **** 		{
 301:main.c        **** 		/* Do Nothing */
 302:main.c        **** 		}
 303:main.c        **** 
 304:main.c        **** 	}
 305:main.c        **** } /* main */
 306:main.c        **** 
 307:main.c        **** 
 308:main.c        **** /*******************************************************************************
 309:main.c        **** *                                                                              *
 310:main.c        **** * PROCEDURE:                                                                   *
 311:main.c        **** *       Error_Handler                                                          * 
 312:main.c        **** *                                                                              *
 313:main.c        **** * DESCRIPTION:                                                                 * 
 314:main.c        **** *       This function is executed in case of error occurrence                  *
 315:main.c        **** *                                                                              *
 316:main.c        **** *******************************************************************************/
ARM GAS  /tmp/cc1OoLLb.s 			page 7


 317:main.c        **** void Error_Handler(void)
 318:main.c        **** {
  28              		.loc 1 318 1 view -0
  29              		.cfi_startproc
  30              		@ Volatile: function does not return.
  31              		@ args = 0, pretend = 0, frame = 0
  32              		@ frame_needed = 0, uses_anonymous_args = 0
  33 0000 08B5     		push	{r3, lr}
  34              	.LCFI0:
  35              		.cfi_def_cfa_offset 8
  36              		.cfi_offset 3, -8
  37              		.cfi_offset 14, -4
 319:main.c        ****     __disable_irq();
  38              		.loc 1 319 5 view .LVU1
  39              	.LBB4:
  40              	.LBI4:
  41              		.file 2 "../../../lib/Drivers/CMSIS/Include/cmsis_gcc.h"
   1:../../../lib/Drivers/CMSIS/Include/cmsis_gcc.h **** /**************************************************************************//**
   2:../../../lib/Drivers/CMSIS/Include/cmsis_gcc.h ****  * @file     cmsis_gcc.h
   3:../../../lib/Drivers/CMSIS/Include/cmsis_gcc.h ****  * @brief    CMSIS compiler GCC header file
   4:../../../lib/Drivers/CMSIS/Include/cmsis_gcc.h ****  * @version  V5.2.0
   5:../../../lib/Drivers/CMSIS/Include/cmsis_gcc.h ****  * @date     08. May 2019
   6:../../../lib/Drivers/CMSIS/Include/cmsis_gcc.h ****  ******************************************************************************/
   7:../../../lib/Drivers/CMSIS/Include/cmsis_gcc.h **** /*
   8:../../../lib/Drivers/CMSIS/Include/cmsis_gcc.h ****  * Copyright (c) 2009-2019 Arm Limited. All rights reserved.
   9:../../../lib/Drivers/CMSIS/Include/cmsis_gcc.h ****  *
  10:../../../lib/Drivers/CMSIS/Include/cmsis_gcc.h ****  * SPDX-License-Identifier: Apache-2.0
  11:../../../lib/Drivers/CMSIS/Include/cmsis_gcc.h ****  *
  12:../../../lib/Drivers/CMSIS/Include/cmsis_gcc.h ****  * Licensed under the Apache License, Version 2.0 (the License); you may
  13:../../../lib/Drivers/CMSIS/Include/cmsis_gcc.h ****  * not use this file except in compliance with the License.
  14:../../../lib/Drivers/CMSIS/Include/cmsis_gcc.h ****  * You may obtain a copy of the License at
  15:../../../lib/Drivers/CMSIS/Include/cmsis_gcc.h ****  *
  16:../../../lib/Drivers/CMSIS/Include/cmsis_gcc.h ****  * www.apache.org/licenses/LICENSE-2.0
  17:../../../lib/Drivers/CMSIS/Include/cmsis_gcc.h ****  *
  18:../../../lib/Drivers/CMSIS/Include/cmsis_gcc.h ****  * Unless required by applicable law or agreed to in writing, software
  19:../../../lib/Drivers/CMSIS/Include/cmsis_gcc.h ****  * distributed under the License is distributed on an AS IS BASIS, WITHOUT
  20:../../../lib/Drivers/CMSIS/Include/cmsis_gcc.h ****  * WARRANTIES OR CONDITIONS OF ANY KIND, either express or implied.
  21:../../../lib/Drivers/CMSIS/Include/cmsis_gcc.h ****  * See the License for the specific language governing permissions and
  22:../../../lib/Drivers/CMSIS/Include/cmsis_gcc.h ****  * limitations under the License.
  23:../../../lib/Drivers/CMSIS/Include/cmsis_gcc.h ****  */
  24:../../../lib/Drivers/CMSIS/Include/cmsis_gcc.h **** 
  25:../../../lib/Drivers/CMSIS/Include/cmsis_gcc.h **** #ifndef __CMSIS_GCC_H
  26:../../../lib/Drivers/CMSIS/Include/cmsis_gcc.h **** #define __CMSIS_GCC_H
  27:../../../lib/Drivers/CMSIS/Include/cmsis_gcc.h **** 
  28:../../../lib/Drivers/CMSIS/Include/cmsis_gcc.h **** /* ignore some GCC warnings */
  29:../../../lib/Drivers/CMSIS/Include/cmsis_gcc.h **** #pragma GCC diagnostic push
  30:../../../lib/Drivers/CMSIS/Include/cmsis_gcc.h **** #pragma GCC diagnostic ignored "-Wsign-conversion"
  31:../../../lib/Drivers/CMSIS/Include/cmsis_gcc.h **** #pragma GCC diagnostic ignored "-Wconversion"
  32:../../../lib/Drivers/CMSIS/Include/cmsis_gcc.h **** #pragma GCC diagnostic ignored "-Wunused-parameter"
  33:../../../lib/Drivers/CMSIS/Include/cmsis_gcc.h **** 
  34:../../../lib/Drivers/CMSIS/Include/cmsis_gcc.h **** /* Fallback for __has_builtin */
  35:../../../lib/Drivers/CMSIS/Include/cmsis_gcc.h **** #ifndef __has_builtin
  36:../../../lib/Drivers/CMSIS/Include/cmsis_gcc.h ****   #define __has_builtin(x) (0)
  37:../../../lib/Drivers/CMSIS/Include/cmsis_gcc.h **** #endif
  38:../../../lib/Drivers/CMSIS/Include/cmsis_gcc.h **** 
  39:../../../lib/Drivers/CMSIS/Include/cmsis_gcc.h **** /* CMSIS compiler specific defines */
  40:../../../lib/Drivers/CMSIS/Include/cmsis_gcc.h **** #ifndef   __ASM
ARM GAS  /tmp/cc1OoLLb.s 			page 8


  41:../../../lib/Drivers/CMSIS/Include/cmsis_gcc.h ****   #define __ASM                                  __asm
  42:../../../lib/Drivers/CMSIS/Include/cmsis_gcc.h **** #endif
  43:../../../lib/Drivers/CMSIS/Include/cmsis_gcc.h **** #ifndef   __INLINE
  44:../../../lib/Drivers/CMSIS/Include/cmsis_gcc.h ****   #define __INLINE                               inline
  45:../../../lib/Drivers/CMSIS/Include/cmsis_gcc.h **** #endif
  46:../../../lib/Drivers/CMSIS/Include/cmsis_gcc.h **** #ifndef   __STATIC_INLINE
  47:../../../lib/Drivers/CMSIS/Include/cmsis_gcc.h ****   #define __STATIC_INLINE                        static inline
  48:../../../lib/Drivers/CMSIS/Include/cmsis_gcc.h **** #endif
  49:../../../lib/Drivers/CMSIS/Include/cmsis_gcc.h **** #ifndef   __STATIC_FORCEINLINE                 
  50:../../../lib/Drivers/CMSIS/Include/cmsis_gcc.h ****   #define __STATIC_FORCEINLINE                   __attribute__((always_inline)) static inline
  51:../../../lib/Drivers/CMSIS/Include/cmsis_gcc.h **** #endif                                           
  52:../../../lib/Drivers/CMSIS/Include/cmsis_gcc.h **** #ifndef   __NO_RETURN
  53:../../../lib/Drivers/CMSIS/Include/cmsis_gcc.h ****   #define __NO_RETURN                            __attribute__((__noreturn__))
  54:../../../lib/Drivers/CMSIS/Include/cmsis_gcc.h **** #endif
  55:../../../lib/Drivers/CMSIS/Include/cmsis_gcc.h **** #ifndef   __USED
  56:../../../lib/Drivers/CMSIS/Include/cmsis_gcc.h ****   #define __USED                                 __attribute__((used))
  57:../../../lib/Drivers/CMSIS/Include/cmsis_gcc.h **** #endif
  58:../../../lib/Drivers/CMSIS/Include/cmsis_gcc.h **** #ifndef   __WEAK
  59:../../../lib/Drivers/CMSIS/Include/cmsis_gcc.h ****   #define __WEAK                                 __attribute__((weak))
  60:../../../lib/Drivers/CMSIS/Include/cmsis_gcc.h **** #endif
  61:../../../lib/Drivers/CMSIS/Include/cmsis_gcc.h **** #ifndef   __PACKED
  62:../../../lib/Drivers/CMSIS/Include/cmsis_gcc.h ****   #define __PACKED                               __attribute__((packed, aligned(1)))
  63:../../../lib/Drivers/CMSIS/Include/cmsis_gcc.h **** #endif
  64:../../../lib/Drivers/CMSIS/Include/cmsis_gcc.h **** #ifndef   __PACKED_STRUCT
  65:../../../lib/Drivers/CMSIS/Include/cmsis_gcc.h ****   #define __PACKED_STRUCT                        struct __attribute__((packed, aligned(1)))
  66:../../../lib/Drivers/CMSIS/Include/cmsis_gcc.h **** #endif
  67:../../../lib/Drivers/CMSIS/Include/cmsis_gcc.h **** #ifndef   __PACKED_UNION
  68:../../../lib/Drivers/CMSIS/Include/cmsis_gcc.h ****   #define __PACKED_UNION                         union __attribute__((packed, aligned(1)))
  69:../../../lib/Drivers/CMSIS/Include/cmsis_gcc.h **** #endif
  70:../../../lib/Drivers/CMSIS/Include/cmsis_gcc.h **** #ifndef   __UNALIGNED_UINT32        /* deprecated */
  71:../../../lib/Drivers/CMSIS/Include/cmsis_gcc.h ****   #pragma GCC diagnostic push
  72:../../../lib/Drivers/CMSIS/Include/cmsis_gcc.h ****   #pragma GCC diagnostic ignored "-Wpacked"
  73:../../../lib/Drivers/CMSIS/Include/cmsis_gcc.h ****   #pragma GCC diagnostic ignored "-Wattributes"
  74:../../../lib/Drivers/CMSIS/Include/cmsis_gcc.h ****   struct __attribute__((packed)) T_UINT32 { uint32_t v; };
  75:../../../lib/Drivers/CMSIS/Include/cmsis_gcc.h ****   #pragma GCC diagnostic pop
  76:../../../lib/Drivers/CMSIS/Include/cmsis_gcc.h ****   #define __UNALIGNED_UINT32(x)                  (((struct T_UINT32 *)(x))->v)
  77:../../../lib/Drivers/CMSIS/Include/cmsis_gcc.h **** #endif
  78:../../../lib/Drivers/CMSIS/Include/cmsis_gcc.h **** #ifndef   __UNALIGNED_UINT16_WRITE
  79:../../../lib/Drivers/CMSIS/Include/cmsis_gcc.h ****   #pragma GCC diagnostic push
  80:../../../lib/Drivers/CMSIS/Include/cmsis_gcc.h ****   #pragma GCC diagnostic ignored "-Wpacked"
  81:../../../lib/Drivers/CMSIS/Include/cmsis_gcc.h ****   #pragma GCC diagnostic ignored "-Wattributes"
  82:../../../lib/Drivers/CMSIS/Include/cmsis_gcc.h ****   __PACKED_STRUCT T_UINT16_WRITE { uint16_t v; };
  83:../../../lib/Drivers/CMSIS/Include/cmsis_gcc.h ****   #pragma GCC diagnostic pop
  84:../../../lib/Drivers/CMSIS/Include/cmsis_gcc.h ****   #define __UNALIGNED_UINT16_WRITE(addr, val)    (void)((((struct T_UINT16_WRITE *)(void *)(addr))-
  85:../../../lib/Drivers/CMSIS/Include/cmsis_gcc.h **** #endif
  86:../../../lib/Drivers/CMSIS/Include/cmsis_gcc.h **** #ifndef   __UNALIGNED_UINT16_READ
  87:../../../lib/Drivers/CMSIS/Include/cmsis_gcc.h ****   #pragma GCC diagnostic push
  88:../../../lib/Drivers/CMSIS/Include/cmsis_gcc.h ****   #pragma GCC diagnostic ignored "-Wpacked"
  89:../../../lib/Drivers/CMSIS/Include/cmsis_gcc.h ****   #pragma GCC diagnostic ignored "-Wattributes"
  90:../../../lib/Drivers/CMSIS/Include/cmsis_gcc.h ****   __PACKED_STRUCT T_UINT16_READ { uint16_t v; };
  91:../../../lib/Drivers/CMSIS/Include/cmsis_gcc.h ****   #pragma GCC diagnostic pop
  92:../../../lib/Drivers/CMSIS/Include/cmsis_gcc.h ****   #define __UNALIGNED_UINT16_READ(addr)          (((const struct T_UINT16_READ *)(const void *)(add
  93:../../../lib/Drivers/CMSIS/Include/cmsis_gcc.h **** #endif
  94:../../../lib/Drivers/CMSIS/Include/cmsis_gcc.h **** #ifndef   __UNALIGNED_UINT32_WRITE
  95:../../../lib/Drivers/CMSIS/Include/cmsis_gcc.h ****   #pragma GCC diagnostic push
  96:../../../lib/Drivers/CMSIS/Include/cmsis_gcc.h ****   #pragma GCC diagnostic ignored "-Wpacked"
  97:../../../lib/Drivers/CMSIS/Include/cmsis_gcc.h ****   #pragma GCC diagnostic ignored "-Wattributes"
ARM GAS  /tmp/cc1OoLLb.s 			page 9


  98:../../../lib/Drivers/CMSIS/Include/cmsis_gcc.h ****   __PACKED_STRUCT T_UINT32_WRITE { uint32_t v; };
  99:../../../lib/Drivers/CMSIS/Include/cmsis_gcc.h ****   #pragma GCC diagnostic pop
 100:../../../lib/Drivers/CMSIS/Include/cmsis_gcc.h ****   #define __UNALIGNED_UINT32_WRITE(addr, val)    (void)((((struct T_UINT32_WRITE *)(void *)(addr))-
 101:../../../lib/Drivers/CMSIS/Include/cmsis_gcc.h **** #endif
 102:../../../lib/Drivers/CMSIS/Include/cmsis_gcc.h **** #ifndef   __UNALIGNED_UINT32_READ
 103:../../../lib/Drivers/CMSIS/Include/cmsis_gcc.h ****   #pragma GCC diagnostic push
 104:../../../lib/Drivers/CMSIS/Include/cmsis_gcc.h ****   #pragma GCC diagnostic ignored "-Wpacked"
 105:../../../lib/Drivers/CMSIS/Include/cmsis_gcc.h ****   #pragma GCC diagnostic ignored "-Wattributes"
 106:../../../lib/Drivers/CMSIS/Include/cmsis_gcc.h ****   __PACKED_STRUCT T_UINT32_READ { uint32_t v; };
 107:../../../lib/Drivers/CMSIS/Include/cmsis_gcc.h ****   #pragma GCC diagnostic pop
 108:../../../lib/Drivers/CMSIS/Include/cmsis_gcc.h ****   #define __UNALIGNED_UINT32_READ(addr)          (((const struct T_UINT32_READ *)(const void *)(add
 109:../../../lib/Drivers/CMSIS/Include/cmsis_gcc.h **** #endif
 110:../../../lib/Drivers/CMSIS/Include/cmsis_gcc.h **** #ifndef   __ALIGNED
 111:../../../lib/Drivers/CMSIS/Include/cmsis_gcc.h ****   #define __ALIGNED(x)                           __attribute__((aligned(x)))
 112:../../../lib/Drivers/CMSIS/Include/cmsis_gcc.h **** #endif
 113:../../../lib/Drivers/CMSIS/Include/cmsis_gcc.h **** #ifndef   __RESTRICT
 114:../../../lib/Drivers/CMSIS/Include/cmsis_gcc.h ****   #define __RESTRICT                             __restrict
 115:../../../lib/Drivers/CMSIS/Include/cmsis_gcc.h **** #endif
 116:../../../lib/Drivers/CMSIS/Include/cmsis_gcc.h **** #ifndef   __COMPILER_BARRIER
 117:../../../lib/Drivers/CMSIS/Include/cmsis_gcc.h ****   #define __COMPILER_BARRIER()                   __ASM volatile("":::"memory")
 118:../../../lib/Drivers/CMSIS/Include/cmsis_gcc.h **** #endif
 119:../../../lib/Drivers/CMSIS/Include/cmsis_gcc.h **** 
 120:../../../lib/Drivers/CMSIS/Include/cmsis_gcc.h **** /* #########################  Startup and Lowlevel Init  ######################## */
 121:../../../lib/Drivers/CMSIS/Include/cmsis_gcc.h **** 
 122:../../../lib/Drivers/CMSIS/Include/cmsis_gcc.h **** #ifndef __PROGRAM_START
 123:../../../lib/Drivers/CMSIS/Include/cmsis_gcc.h **** 
 124:../../../lib/Drivers/CMSIS/Include/cmsis_gcc.h **** /**
 125:../../../lib/Drivers/CMSIS/Include/cmsis_gcc.h ****   \brief   Initializes data and bss sections
 126:../../../lib/Drivers/CMSIS/Include/cmsis_gcc.h ****   \details This default implementations initialized all data and additional bss
 127:../../../lib/Drivers/CMSIS/Include/cmsis_gcc.h ****            sections relying on .copy.table and .zero.table specified properly
 128:../../../lib/Drivers/CMSIS/Include/cmsis_gcc.h ****            in the used linker script.
 129:../../../lib/Drivers/CMSIS/Include/cmsis_gcc.h ****   
 130:../../../lib/Drivers/CMSIS/Include/cmsis_gcc.h ****  */
 131:../../../lib/Drivers/CMSIS/Include/cmsis_gcc.h **** __STATIC_FORCEINLINE __NO_RETURN void __cmsis_start(void)
 132:../../../lib/Drivers/CMSIS/Include/cmsis_gcc.h **** {
 133:../../../lib/Drivers/CMSIS/Include/cmsis_gcc.h ****   extern void _start(void) __NO_RETURN;
 134:../../../lib/Drivers/CMSIS/Include/cmsis_gcc.h ****   
 135:../../../lib/Drivers/CMSIS/Include/cmsis_gcc.h ****   typedef struct {
 136:../../../lib/Drivers/CMSIS/Include/cmsis_gcc.h ****     uint32_t const* src;
 137:../../../lib/Drivers/CMSIS/Include/cmsis_gcc.h ****     uint32_t* dest;
 138:../../../lib/Drivers/CMSIS/Include/cmsis_gcc.h ****     uint32_t  wlen;
 139:../../../lib/Drivers/CMSIS/Include/cmsis_gcc.h ****   } __copy_table_t;
 140:../../../lib/Drivers/CMSIS/Include/cmsis_gcc.h ****   
 141:../../../lib/Drivers/CMSIS/Include/cmsis_gcc.h ****   typedef struct {
 142:../../../lib/Drivers/CMSIS/Include/cmsis_gcc.h ****     uint32_t* dest;
 143:../../../lib/Drivers/CMSIS/Include/cmsis_gcc.h ****     uint32_t  wlen;
 144:../../../lib/Drivers/CMSIS/Include/cmsis_gcc.h ****   } __zero_table_t;
 145:../../../lib/Drivers/CMSIS/Include/cmsis_gcc.h ****   
 146:../../../lib/Drivers/CMSIS/Include/cmsis_gcc.h ****   extern const __copy_table_t __copy_table_start__;
 147:../../../lib/Drivers/CMSIS/Include/cmsis_gcc.h ****   extern const __copy_table_t __copy_table_end__;
 148:../../../lib/Drivers/CMSIS/Include/cmsis_gcc.h ****   extern const __zero_table_t __zero_table_start__;
 149:../../../lib/Drivers/CMSIS/Include/cmsis_gcc.h ****   extern const __zero_table_t __zero_table_end__;
 150:../../../lib/Drivers/CMSIS/Include/cmsis_gcc.h **** 
 151:../../../lib/Drivers/CMSIS/Include/cmsis_gcc.h ****   for (__copy_table_t const* pTable = &__copy_table_start__; pTable < &__copy_table_end__; ++pTable
 152:../../../lib/Drivers/CMSIS/Include/cmsis_gcc.h ****     for(uint32_t i=0u; i<pTable->wlen; ++i) {
 153:../../../lib/Drivers/CMSIS/Include/cmsis_gcc.h ****       pTable->dest[i] = pTable->src[i];
 154:../../../lib/Drivers/CMSIS/Include/cmsis_gcc.h ****     }
ARM GAS  /tmp/cc1OoLLb.s 			page 10


 155:../../../lib/Drivers/CMSIS/Include/cmsis_gcc.h ****   }
 156:../../../lib/Drivers/CMSIS/Include/cmsis_gcc.h ****  
 157:../../../lib/Drivers/CMSIS/Include/cmsis_gcc.h ****   for (__zero_table_t const* pTable = &__zero_table_start__; pTable < &__zero_table_end__; ++pTable
 158:../../../lib/Drivers/CMSIS/Include/cmsis_gcc.h ****     for(uint32_t i=0u; i<pTable->wlen; ++i) {
 159:../../../lib/Drivers/CMSIS/Include/cmsis_gcc.h ****       pTable->dest[i] = 0u;
 160:../../../lib/Drivers/CMSIS/Include/cmsis_gcc.h ****     }
 161:../../../lib/Drivers/CMSIS/Include/cmsis_gcc.h ****   }
 162:../../../lib/Drivers/CMSIS/Include/cmsis_gcc.h ****  
 163:../../../lib/Drivers/CMSIS/Include/cmsis_gcc.h ****   _start();
 164:../../../lib/Drivers/CMSIS/Include/cmsis_gcc.h **** }
 165:../../../lib/Drivers/CMSIS/Include/cmsis_gcc.h ****   
 166:../../../lib/Drivers/CMSIS/Include/cmsis_gcc.h **** #define __PROGRAM_START           __cmsis_start
 167:../../../lib/Drivers/CMSIS/Include/cmsis_gcc.h **** #endif
 168:../../../lib/Drivers/CMSIS/Include/cmsis_gcc.h **** 
 169:../../../lib/Drivers/CMSIS/Include/cmsis_gcc.h **** #ifndef __INITIAL_SP
 170:../../../lib/Drivers/CMSIS/Include/cmsis_gcc.h **** #define __INITIAL_SP              __StackTop
 171:../../../lib/Drivers/CMSIS/Include/cmsis_gcc.h **** #endif
 172:../../../lib/Drivers/CMSIS/Include/cmsis_gcc.h **** 
 173:../../../lib/Drivers/CMSIS/Include/cmsis_gcc.h **** #ifndef __STACK_LIMIT
 174:../../../lib/Drivers/CMSIS/Include/cmsis_gcc.h **** #define __STACK_LIMIT             __StackLimit
 175:../../../lib/Drivers/CMSIS/Include/cmsis_gcc.h **** #endif
 176:../../../lib/Drivers/CMSIS/Include/cmsis_gcc.h **** 
 177:../../../lib/Drivers/CMSIS/Include/cmsis_gcc.h **** #ifndef __VECTOR_TABLE
 178:../../../lib/Drivers/CMSIS/Include/cmsis_gcc.h **** #define __VECTOR_TABLE            __Vectors
 179:../../../lib/Drivers/CMSIS/Include/cmsis_gcc.h **** #endif
 180:../../../lib/Drivers/CMSIS/Include/cmsis_gcc.h **** 
 181:../../../lib/Drivers/CMSIS/Include/cmsis_gcc.h **** #ifndef __VECTOR_TABLE_ATTRIBUTE
 182:../../../lib/Drivers/CMSIS/Include/cmsis_gcc.h **** #define __VECTOR_TABLE_ATTRIBUTE  __attribute((used, section(".vectors")))
 183:../../../lib/Drivers/CMSIS/Include/cmsis_gcc.h **** #endif
 184:../../../lib/Drivers/CMSIS/Include/cmsis_gcc.h **** 
 185:../../../lib/Drivers/CMSIS/Include/cmsis_gcc.h **** /* ###########################  Core Function Access  ########################### */
 186:../../../lib/Drivers/CMSIS/Include/cmsis_gcc.h **** /** \ingroup  CMSIS_Core_FunctionInterface
 187:../../../lib/Drivers/CMSIS/Include/cmsis_gcc.h ****     \defgroup CMSIS_Core_RegAccFunctions CMSIS Core Register Access Functions
 188:../../../lib/Drivers/CMSIS/Include/cmsis_gcc.h ****   @{
 189:../../../lib/Drivers/CMSIS/Include/cmsis_gcc.h ****  */
 190:../../../lib/Drivers/CMSIS/Include/cmsis_gcc.h **** 
 191:../../../lib/Drivers/CMSIS/Include/cmsis_gcc.h **** /**
 192:../../../lib/Drivers/CMSIS/Include/cmsis_gcc.h ****   \brief   Enable IRQ Interrupts
 193:../../../lib/Drivers/CMSIS/Include/cmsis_gcc.h ****   \details Enables IRQ interrupts by clearing the I-bit in the CPSR.
 194:../../../lib/Drivers/CMSIS/Include/cmsis_gcc.h ****            Can only be executed in Privileged modes.
 195:../../../lib/Drivers/CMSIS/Include/cmsis_gcc.h ****  */
 196:../../../lib/Drivers/CMSIS/Include/cmsis_gcc.h **** __STATIC_FORCEINLINE void __enable_irq(void)
 197:../../../lib/Drivers/CMSIS/Include/cmsis_gcc.h **** {
 198:../../../lib/Drivers/CMSIS/Include/cmsis_gcc.h ****   __ASM volatile ("cpsie i" : : : "memory");
 199:../../../lib/Drivers/CMSIS/Include/cmsis_gcc.h **** }
 200:../../../lib/Drivers/CMSIS/Include/cmsis_gcc.h **** 
 201:../../../lib/Drivers/CMSIS/Include/cmsis_gcc.h **** 
 202:../../../lib/Drivers/CMSIS/Include/cmsis_gcc.h **** /**
 203:../../../lib/Drivers/CMSIS/Include/cmsis_gcc.h ****   \brief   Disable IRQ Interrupts
 204:../../../lib/Drivers/CMSIS/Include/cmsis_gcc.h ****   \details Disables IRQ interrupts by setting the I-bit in the CPSR.
 205:../../../lib/Drivers/CMSIS/Include/cmsis_gcc.h ****            Can only be executed in Privileged modes.
 206:../../../lib/Drivers/CMSIS/Include/cmsis_gcc.h ****  */
 207:../../../lib/Drivers/CMSIS/Include/cmsis_gcc.h **** __STATIC_FORCEINLINE void __disable_irq(void)
  42              		.loc 2 207 27 view .LVU2
  43              	.LBB5:
 208:../../../lib/Drivers/CMSIS/Include/cmsis_gcc.h **** {
 209:../../../lib/Drivers/CMSIS/Include/cmsis_gcc.h ****   __ASM volatile ("cpsid i" : : : "memory");
ARM GAS  /tmp/cc1OoLLb.s 			page 11


  44              		.loc 2 209 3 view .LVU3
  45              		.syntax unified
  46              	@ 209 "../../../lib/Drivers/CMSIS/Include/cmsis_gcc.h" 1
  47 0002 72B6     		cpsid i
  48              	@ 0 "" 2
  49              		.thumb
  50              		.syntax unified
  51              	.LBE5:
  52              	.LBE4:
 320:main.c        **** 	led_set_color( LED_RED );
  53              		.loc 1 320 2 view .LVU4
  54 0004 0120     		movs	r0, #1
  55 0006 FFF7FEFF 		bl	led_set_color
  56              	.LVL0:
  57              	.L2:
 321:main.c        ****     while (1)
  58              		.loc 1 321 5 discriminator 1 view .LVU5
 322:main.c        ****     {
 323:main.c        ****     }
  59              		.loc 1 323 5 discriminator 1 view .LVU6
 321:main.c        ****     while (1)
  60              		.loc 1 321 11 discriminator 1 view .LVU7
  61 000a FEE7     		b	.L2
  62              		.cfi_endproc
  63              	.LFE145:
  65              		.section	.text.main,"ax",%progbits
  66              		.align	1
  67              		.global	main
  68              		.syntax unified
  69              		.thumb
  70              		.thumb_func
  72              	main:
  73              	.LFB144:
  59:main.c        **** /*------------------------------------------------------------------------------
  74              		.loc 1 59 1 view -0
  75              		.cfi_startproc
  76              		@ args = 0, pretend = 0, frame = 80
  77              		@ frame_needed = 0, uses_anonymous_args = 0
  78 0000 00B5     		push	{lr}
  79              	.LCFI1:
  80              		.cfi_def_cfa_offset 4
  81              		.cfi_offset 14, -4
  82 0002 95B0     		sub	sp, sp, #84
  83              	.LCFI2:
  84              		.cfi_def_cfa_offset 88
  65:main.c        **** uint8_t       subcommand_code;                 /* Subcommand opcode           */
  85              		.loc 1 65 1 view .LVU9
  66:main.c        **** USB_STATUS    command_status;                  /* Status of USB HAL           */
  86              		.loc 1 66 1 view .LVU10
  67:main.c        **** 
  87              		.loc 1 67 1 view .LVU11
  70:main.c        **** HFLASH_BUFFER flash_handle;                    /* Flash API buffer handle     */
  88              		.loc 1 70 1 view .LVU12
  71:main.c        **** uint8_t       flash_buffer[ DEF_FLASH_BUFFER_SIZE ]; /* Flash data buffer     */
  89              		.loc 1 71 1 view .LVU13
  72:main.c        **** 
  90              		.loc 1 72 1 view .LVU14
ARM GAS  /tmp/cc1OoLLb.s 			page 12


  75:main.c        **** BARO_CONFIG   baro_configs;                    /* Baro sensor config settings */
  91              		.loc 1 75 1 view .LVU15
  76:main.c        **** 
  92              		.loc 1 76 1 view .LVU16
  79:main.c        **** IMU_CONFIG    imu_configs;                     /* IMU config settings         */
  93              		.loc 1 79 1 view .LVU17
  80:main.c        **** 
  94              		.loc 1 80 1 view .LVU18
  83:main.c        **** 
  95              		.loc 1 83 1 view .LVU19
  89:main.c        ****                                and Systick.                                   */
  96              		.loc 1 89 1 view .LVU20
  97 0004 FFF7FEFF 		bl	HAL_Init
  98              	.LVL1:
  91:main.c        **** PeriphCommonClock_Config(); /* Common Peripherals clock                       */
  99              		.loc 1 91 1 view .LVU21
 100 0008 FFF7FEFF 		bl	SystemClock_Config
 101              	.LVL2:
  92:main.c        **** GPIO_Init();                /* GPIO                                           */
 102              		.loc 1 92 1 view .LVU22
 103 000c FFF7FEFF 		bl	PeriphCommonClock_Config
 104              	.LVL3:
  93:main.c        **** USB_UART_Init();            /* USB UART                                       */
 105              		.loc 1 93 1 view .LVU23
 106 0010 FFF7FEFF 		bl	GPIO_Init
 107              	.LVL4:
  94:main.c        **** Baro_I2C_Init();            /* Barometric pressure sensor                     */
 108              		.loc 1 94 1 view .LVU24
 109 0014 FFF7FEFF 		bl	USB_UART_Init
 110              	.LVL5:
  95:main.c        **** IMU_GPS_I2C_Init();         /* IMU and GPS                                    */
 111              		.loc 1 95 1 view .LVU25
 112 0018 FFF7FEFF 		bl	Baro_I2C_Init
 113              	.LVL6:
  96:main.c        **** FLASH_SPI_Init();           /* External flash chip                            */
 114              		.loc 1 96 1 view .LVU26
 115 001c FFF7FEFF 		bl	IMU_GPS_I2C_Init
 116              	.LVL7:
  97:main.c        **** BUZZER_TIM_Init();          /* Buzzer                                         */
 117              		.loc 1 97 1 view .LVU27
 118 0020 FFF7FEFF 		bl	FLASH_SPI_Init
 119              	.LVL8:
  98:main.c        **** SD_SDMMC_Init();            /* SD card SDMMC interface                        */
 120              		.loc 1 98 1 view .LVU28
 121 0024 FFF7FEFF 		bl	BUZZER_TIM_Init
 122              	.LVL9:
  99:main.c        **** MX_FATFS_Init();            /* FatFs file system middleware                   */
 123              		.loc 1 99 1 view .LVU29
 124 0028 FFF7FEFF 		bl	SD_SDMMC_Init
 125              	.LVL10:
 100:main.c        **** 
 126              		.loc 1 100 1 view .LVU30
 127 002c FFF7FEFF 		bl	MX_FATFS_Init
 128              	.LVL11:
 108:main.c        **** flash_handle.num_bytes         = 0;
 129              		.loc 1 108 1 view .LVU31
 108:main.c        **** flash_handle.num_bytes         = 0;
ARM GAS  /tmp/cc1OoLLb.s 			page 13


 130              		.loc 1 108 32 is_stmt 0 view .LVU32
 131 0030 0023     		movs	r3, #0
 132 0032 8DF84830 		strb	r3, [sp, #72]
 109:main.c        **** flash_handle.address           = 0;
 133              		.loc 1 109 1 is_stmt 1 view .LVU33
 109:main.c        **** flash_handle.address           = 0;
 134              		.loc 1 109 32 is_stmt 0 view .LVU34
 135 0036 8DF83C30 		strb	r3, [sp, #60]
 110:main.c        **** flash_handle.pbuffer           = &flash_buffer[0];
 136              		.loc 1 110 1 is_stmt 1 view .LVU35
 110:main.c        **** flash_handle.pbuffer           = &flash_buffer[0];
 137              		.loc 1 110 32 is_stmt 0 view .LVU36
 138 003a 1093     		str	r3, [sp, #64]
 111:main.c        **** flash_handle.status_register   = 0xFF;
 139              		.loc 1 111 1 is_stmt 1 view .LVU37
 111:main.c        **** flash_handle.status_register   = 0xFF;
 140              		.loc 1 111 32 is_stmt 0 view .LVU38
 141 003c 07AA     		add	r2, sp, #28
 142 003e 1192     		str	r2, [sp, #68]
 112:main.c        **** flash_handle.bpl_bits          = FLASH_BPL_NONE;
 143              		.loc 1 112 1 is_stmt 1 view .LVU39
 112:main.c        **** flash_handle.bpl_bits          = FLASH_BPL_NONE;
 144              		.loc 1 112 32 is_stmt 0 view .LVU40
 145 0040 FF22     		movs	r2, #255
 146 0042 8DF84B20 		strb	r2, [sp, #75]
 113:main.c        **** flash_handle.bpl_write_protect = FLASH_BPL_READ_WRITE;
 147              		.loc 1 113 1 is_stmt 1 view .LVU41
 113:main.c        **** flash_handle.bpl_write_protect = FLASH_BPL_READ_WRITE;
 148              		.loc 1 113 32 is_stmt 0 view .LVU42
 149 0046 C322     		movs	r2, #195
 150 0048 8DF84920 		strb	r2, [sp, #73]
 114:main.c        **** 
 151              		.loc 1 114 1 is_stmt 1 view .LVU43
 114:main.c        **** 
 152              		.loc 1 114 32 is_stmt 0 view .LVU44
 153 004c 8DF84A30 		strb	r3, [sp, #74]
 117:main.c        **** baro_configs.mode              = BARO_NORMAL_MODE;
 154              		.loc 1 117 1 is_stmt 1 view .LVU45
 117:main.c        **** baro_configs.mode              = BARO_NORMAL_MODE;
 155              		.loc 1 117 32 is_stmt 0 view .LVU46
 156 0050 0322     		movs	r2, #3
 157 0052 8DF81420 		strb	r2, [sp, #20]
 118:main.c        **** baro_configs.press_OSR_setting = BARO_PRESS_OSR_X8;
 158              		.loc 1 118 1 is_stmt 1 view .LVU47
 118:main.c        **** baro_configs.press_OSR_setting = BARO_PRESS_OSR_X8;
 159              		.loc 1 118 32 is_stmt 0 view .LVU48
 160 0056 8DF81520 		strb	r2, [sp, #21]
 119:main.c        **** baro_configs.temp_OSR_setting  = BARO_TEMP_OSR_X1;
 161              		.loc 1 119 1 is_stmt 1 view .LVU49
 119:main.c        **** baro_configs.temp_OSR_setting  = BARO_TEMP_OSR_X1;
 162              		.loc 1 119 32 is_stmt 0 view .LVU50
 163 005a 8DF81620 		strb	r2, [sp, #22]
 120:main.c        **** baro_configs.ODR_setting       = BARO_ODR_50HZ;
 164              		.loc 1 120 1 is_stmt 1 view .LVU51
 120:main.c        **** baro_configs.ODR_setting       = BARO_ODR_50HZ;
 165              		.loc 1 120 32 is_stmt 0 view .LVU52
 166 005e 8DF81730 		strb	r3, [sp, #23]
ARM GAS  /tmp/cc1OoLLb.s 			page 14


 121:main.c        **** baro_configs.IIR_setting       = BARO_IIR_COEF_0;
 167              		.loc 1 121 1 is_stmt 1 view .LVU53
 121:main.c        **** baro_configs.IIR_setting       = BARO_IIR_COEF_0;
 168              		.loc 1 121 32 is_stmt 0 view .LVU54
 169 0062 0221     		movs	r1, #2
 170 0064 8DF81810 		strb	r1, [sp, #24]
 122:main.c        **** 
 171              		.loc 1 122 1 is_stmt 1 view .LVU55
 122:main.c        **** 
 172              		.loc 1 122 32 is_stmt 0 view .LVU56
 173 0068 8DF81930 		strb	r3, [sp, #25]
 125:main.c        **** imu_configs.acc_odr            = IMU_ODR_100;
 174              		.loc 1 125 1 is_stmt 1 view .LVU57
 125:main.c        **** imu_configs.acc_odr            = IMU_ODR_100;
 175              		.loc 1 125 32 is_stmt 0 view .LVU58
 176 006c 0E20     		movs	r0, #14
 177 006e 8DF80400 		strb	r0, [sp, #4]
 126:main.c        **** imu_configs.gyro_odr           = IMU_ODR_100;
 178              		.loc 1 126 1 is_stmt 1 view .LVU59
 126:main.c        **** imu_configs.gyro_odr           = IMU_ODR_100;
 179              		.loc 1 126 32 is_stmt 0 view .LVU60
 180 0072 0820     		movs	r0, #8
 181 0074 8DF80500 		strb	r0, [sp, #5]
 127:main.c        **** imu_configs.mag_odr            = MAG_ODR_10HZ;
 182              		.loc 1 127 1 is_stmt 1 view .LVU61
 127:main.c        **** imu_configs.mag_odr            = MAG_ODR_10HZ;
 183              		.loc 1 127 32 is_stmt 0 view .LVU62
 184 0078 8DF80600 		strb	r0, [sp, #6]
 128:main.c        **** imu_configs.acc_filter         = IMU_FILTER_NORM_AVG4;
 185              		.loc 1 128 1 is_stmt 1 view .LVU63
 128:main.c        **** imu_configs.acc_filter         = IMU_FILTER_NORM_AVG4;
 186              		.loc 1 128 32 is_stmt 0 view .LVU64
 187 007c 8DF80730 		strb	r3, [sp, #7]
 129:main.c        **** imu_configs.gyro_filter        = IMU_FILTER_NORM_AVG4;
 188              		.loc 1 129 1 is_stmt 1 view .LVU65
 129:main.c        **** imu_configs.gyro_filter        = IMU_FILTER_NORM_AVG4;
 189              		.loc 1 129 32 is_stmt 0 view .LVU66
 190 0080 2020     		movs	r0, #32
 191 0082 8DF80800 		strb	r0, [sp, #8]
 130:main.c        **** imu_configs.acc_filter_mode    = IMU_FILTER_FILTER_MODE;
 192              		.loc 1 130 1 is_stmt 1 view .LVU67
 130:main.c        **** imu_configs.acc_filter_mode    = IMU_FILTER_FILTER_MODE;
 193              		.loc 1 130 32 is_stmt 0 view .LVU68
 194 0086 8DF80900 		strb	r0, [sp, #9]
 131:main.c        **** imu_configs.gyro_filter_mode   = IMU_FILTER_FILTER_MODE;
 195              		.loc 1 131 1 is_stmt 1 view .LVU69
 131:main.c        **** imu_configs.gyro_filter_mode   = IMU_FILTER_FILTER_MODE;
 196              		.loc 1 131 32 is_stmt 0 view .LVU70
 197 008a 8020     		movs	r0, #128
 198 008c 8DF80A00 		strb	r0, [sp, #10]
 132:main.c        **** imu_configs.acc_range          = IMU_ACC_RANGE_16G;
 199              		.loc 1 132 1 is_stmt 1 view .LVU71
 132:main.c        **** imu_configs.acc_range          = IMU_ACC_RANGE_16G;
 200              		.loc 1 132 32 is_stmt 0 view .LVU72
 201 0090 8DF80B00 		strb	r0, [sp, #11]
 133:main.c        **** imu_configs.gyro_range         = IMU_GYRO_RANGE_500;
 202              		.loc 1 133 1 is_stmt 1 view .LVU73
ARM GAS  /tmp/cc1OoLLb.s 			page 15


 133:main.c        **** imu_configs.gyro_range         = IMU_GYRO_RANGE_500;
 203              		.loc 1 133 32 is_stmt 0 view .LVU74
 204 0094 8DF80C20 		strb	r2, [sp, #12]
 134:main.c        **** imu_configs.mag_op_mode        = MAG_NORMAL_MODE;
 205              		.loc 1 134 1 is_stmt 1 view .LVU75
 134:main.c        **** imu_configs.mag_op_mode        = MAG_NORMAL_MODE;
 206              		.loc 1 134 32 is_stmt 0 view .LVU76
 207 0098 8DF80D10 		strb	r1, [sp, #13]
 135:main.c        **** imu_configs.mag_xy_repititions = 9; /* BMM150 Regular Preset Recomendation */
 208              		.loc 1 135 1 is_stmt 1 view .LVU77
 135:main.c        **** imu_configs.mag_xy_repititions = 9; /* BMM150 Regular Preset Recomendation */
 209              		.loc 1 135 32 is_stmt 0 view .LVU78
 210 009c 8DF80E30 		strb	r3, [sp, #14]
 136:main.c        **** imu_configs.mag_z_repititions  = 15;
 211              		.loc 1 136 1 is_stmt 1 view .LVU79
 136:main.c        **** imu_configs.mag_z_repititions  = 15;
 212              		.loc 1 136 32 is_stmt 0 view .LVU80
 213 00a0 0922     		movs	r2, #9
 214 00a2 8DF80F20 		strb	r2, [sp, #15]
 137:main.c        **** 
 215              		.loc 1 137 1 is_stmt 1 view .LVU81
 137:main.c        **** 
 216              		.loc 1 137 32 is_stmt 0 view .LVU82
 217 00a6 0F22     		movs	r2, #15
 218 00a8 8DF81020 		strb	r2, [sp, #16]
 140:main.c        **** command_status                 = USB_OK;
 219              		.loc 1 140 1 is_stmt 1 view .LVU83
 220              	.LVL12:
 141:main.c        **** flash_status                   = FLASH_OK;
 221              		.loc 1 141 1 view .LVU84
 142:main.c        **** ign_status                     = IGN_OK;
 222              		.loc 1 142 1 view .LVU85
 142:main.c        **** ign_status                     = IGN_OK;
 223              		.loc 1 142 32 is_stmt 0 view .LVU86
 224 00ac 8DF84D30 		strb	r3, [sp, #77]
 143:main.c        **** imu_status                     = IMU_OK;
 225              		.loc 1 143 1 is_stmt 1 view .LVU87
 143:main.c        **** imu_status                     = IMU_OK;
 226              		.loc 1 143 32 is_stmt 0 view .LVU88
 227 00b0 4023     		movs	r3, #64
 228 00b2 8DF80330 		strb	r3, [sp, #3]
 144:main.c        **** 
 229              		.loc 1 144 1 is_stmt 1 view .LVU89
 230              	.LVL13:
 152:main.c        **** if ( flash_status != FLASH_OK )
 231              		.loc 1 152 1 view .LVU90
 152:main.c        **** if ( flash_status != FLASH_OK )
 232              		.loc 1 152 16 is_stmt 0 view .LVU91
 233 00b6 0FA8     		add	r0, sp, #60
 234 00b8 FFF7FEFF 		bl	flash_init
 235              	.LVL14:
 152:main.c        **** if ( flash_status != FLASH_OK )
 236              		.loc 1 152 14 view .LVU92
 237 00bc 8DF84D00 		strb	r0, [sp, #77]
 153:main.c        **** 	{
 238              		.loc 1 153 1 is_stmt 1 view .LVU93
 153:main.c        **** 	{
ARM GAS  /tmp/cc1OoLLb.s 			page 16


 239              		.loc 1 153 4 is_stmt 0 view .LVU94
 240 00c0 08B1     		cbz	r0, .L5
 155:main.c        **** 	}
 241              		.loc 1 155 2 is_stmt 1 view .LVU95
 242 00c2 FFF7FEFF 		bl	Error_Handler
 243              	.LVL15:
 244              	.L5:
 159:main.c        **** 
 245              		.loc 1 159 1 view .LVU96
 246 00c6 FFF7FEFF 		bl	sensor_init
 247              	.LVL16:
 162:main.c        **** if ( baro_status != BARO_OK )
 248              		.loc 1 162 1 view .LVU97
 162:main.c        **** if ( baro_status != BARO_OK )
 249              		.loc 1 162 15 is_stmt 0 view .LVU98
 250 00ca 05A8     		add	r0, sp, #20
 251 00cc FFF7FEFF 		bl	baro_init
 252              	.LVL17:
 163:main.c        **** 	{
 253              		.loc 1 163 1 is_stmt 1 view .LVU99
 163:main.c        **** 	{
 254              		.loc 1 163 4 is_stmt 0 view .LVU100
 255 00d0 08B1     		cbz	r0, .L6
 165:main.c        **** 	}
 256              		.loc 1 165 2 is_stmt 1 view .LVU101
 257 00d2 FFF7FEFF 		bl	Error_Handler
 258              	.LVL18:
 259              	.L6:
 169:main.c        **** if ( imu_status != IMU_OK )
 260              		.loc 1 169 1 view .LVU102
 169:main.c        **** if ( imu_status != IMU_OK )
 261              		.loc 1 169 14 is_stmt 0 view .LVU103
 262 00d6 01A8     		add	r0, sp, #4
 263              	.LVL19:
 169:main.c        **** if ( imu_status != IMU_OK )
 264              		.loc 1 169 14 view .LVU104
 265 00d8 FFF7FEFF 		bl	imu_init
 266              	.LVL20:
 170:main.c        **** 	{
 267              		.loc 1 170 1 is_stmt 1 view .LVU105
 170:main.c        **** 	{
 268              		.loc 1 170 4 is_stmt 0 view .LVU106
 269 00dc 08B1     		cbz	r0, .L7
 172:main.c        **** 	}
 270              		.loc 1 172 2 is_stmt 1 view .LVU107
 271 00de FFF7FEFF 		bl	Error_Handler
 272              	.LVL21:
 273              	.L7:
 176:main.c        **** 
 274              		.loc 1 176 1 view .LVU108
 275 00e2 0020     		movs	r0, #0
 276              	.LVL22:
 176:main.c        **** 
 277              		.loc 1 176 1 is_stmt 0 view .LVU109
 278 00e4 FFF7FEFF 		bl	led_set_color
 279              	.LVL23:
 280 00e8 01E0     		b	.L9
ARM GAS  /tmp/cc1OoLLb.s 			page 17


 281              	.LVL24:
 282              	.L16:
 199:main.c        **** 				break;
 283              		.loc 1 199 5 is_stmt 1 view .LVU110
 284 00ea FFF7FEFF 		bl	ping
 285              	.LVL25:
 200:main.c        **** 				}
 286              		.loc 1 200 5 view .LVU111
 287              	.L9:
 182:main.c        **** 	{
 288              		.loc 1 182 1 view .LVU112
 185:main.c        ****                                  &rx_data, 
 289              		.loc 1 185 2 view .LVU113
 185:main.c        ****                                  &rx_data, 
 290              		.loc 1 185 19 is_stmt 0 view .LVU114
 291 00ee 0A22     		movs	r2, #10
 292 00f0 0121     		movs	r1, #1
 293 00f2 0DF14F00 		add	r0, sp, #79
 294 00f6 FFF7FEFF 		bl	usb_receive
 295              	.LVL26:
 192:main.c        **** 		{
 296              		.loc 1 192 2 is_stmt 1 view .LVU115
 192:main.c        **** 		{
 297              		.loc 1 192 5 is_stmt 0 view .LVU116
 298 00fa 0028     		cmp	r0, #0
 299 00fc F7D1     		bne	.L9
 194:main.c        **** 			{
 300              		.loc 1 194 3 is_stmt 1 view .LVU117
 301 00fe 9DF84F30 		ldrb	r3, [sp, #79]	@ zero_extendqisi2
 302 0102 013B     		subs	r3, r3, #1
 303 0104 212B     		cmp	r3, #33
 304 0106 00F28980 		bhi	.L10
 305 010a 01A2     		adr	r2, .L12
 306 010c 52F823F0 		ldr	pc, [r2, r3, lsl #2]
 307              		.p2align 2
 308              	.L12:
 309 0110 EB000000 		.word	.L16+1
 310 0114 99010000 		.word	.L15+1
 311 0118 9F010000 		.word	.L14+1
 312 011c 1D020000 		.word	.L10+1
 313 0120 1D020000 		.word	.L10+1
 314 0124 1D020000 		.word	.L10+1
 315 0128 1D020000 		.word	.L10+1
 316 012c 1D020000 		.word	.L10+1
 317 0130 1D020000 		.word	.L10+1
 318 0134 1D020000 		.word	.L10+1
 319 0138 1D020000 		.word	.L10+1
 320 013c 1D020000 		.word	.L10+1
 321 0140 1D020000 		.word	.L10+1
 322 0144 1D020000 		.word	.L10+1
 323 0148 1D020000 		.word	.L10+1
 324 014c 1D020000 		.word	.L10+1
 325 0150 1D020000 		.word	.L10+1
 326 0154 1D020000 		.word	.L10+1
 327 0158 1D020000 		.word	.L10+1
 328 015c 1D020000 		.word	.L10+1
 329 0160 1D020000 		.word	.L10+1
ARM GAS  /tmp/cc1OoLLb.s 			page 18


 330 0164 1D020000 		.word	.L10+1
 331 0168 1D020000 		.word	.L10+1
 332 016c 1D020000 		.word	.L10+1
 333 0170 1D020000 		.word	.L10+1
 334 0174 1D020000 		.word	.L10+1
 335 0178 1D020000 		.word	.L10+1
 336 017c 1D020000 		.word	.L10+1
 337 0180 1D020000 		.word	.L10+1
 338 0184 1D020000 		.word	.L10+1
 339 0188 1D020000 		.word	.L10+1
 340 018c BB010000 		.word	.L13+1
 341 0190 1D020000 		.word	.L10+1
 342 0194 E7010000 		.word	.L11+1
 343              		.p2align 1
 344              	.L15:
 206:main.c        **** 				break;
 345              		.loc 1 206 5 view .LVU118
 346 0198 FFF7FEFF 		bl	ping
 347              	.LVL27:
 207:main.c        **** 				}
 348              		.loc 1 207 5 view .LVU119
 349 019c A7E7     		b	.L9
 350              	.LVL28:
 351              	.L14:
 214:main.c        **** 				                              sizeof( subcommand_code ),
 352              		.loc 1 214 5 view .LVU120
 214:main.c        **** 				                              sizeof( subcommand_code ),
 353              		.loc 1 214 22 is_stmt 0 view .LVU121
 354 019e 0A22     		movs	r2, #10
 355 01a0 0121     		movs	r1, #1
 356 01a2 0DF14E00 		add	r0, sp, #78
 357              	.LVL29:
 214:main.c        **** 				                              sizeof( subcommand_code ),
 358              		.loc 1 214 22 view .LVU122
 359 01a6 FFF7FEFF 		bl	usb_receive
 360              	.LVL30:
 218:main.c        **** 					{
 361              		.loc 1 218 5 is_stmt 1 view .LVU123
 218:main.c        **** 					{
 362              		.loc 1 218 8 is_stmt 0 view .LVU124
 363 01aa 20B9     		cbnz	r0, .L18
 221:main.c        **** 					}
 364              		.loc 1 221 6 is_stmt 1 view .LVU125
 365 01ac 9DF84E00 		ldrb	r0, [sp, #78]	@ zero_extendqisi2
 366              	.LVL31:
 221:main.c        **** 					}
 367              		.loc 1 221 6 is_stmt 0 view .LVU126
 368 01b0 FFF7FEFF 		bl	sensor_cmd_execute
 369              	.LVL32:
 370 01b4 9BE7     		b	.L9
 371              	.LVL33:
 372              	.L18:
 225:main.c        **** 					}
 373              		.loc 1 225 6 is_stmt 1 view .LVU127
 374 01b6 FFF7FEFF 		bl	Error_Handler
 375              	.LVL34:
 376              	.L13:
ARM GAS  /tmp/cc1OoLLb.s 			page 19


 234:main.c        ****                                               sizeof( subcommand_code ),
 377              		.loc 1 234 5 view .LVU128
 234:main.c        ****                                               sizeof( subcommand_code ),
 378              		.loc 1 234 22 is_stmt 0 view .LVU129
 379 01ba 0A22     		movs	r2, #10
 380 01bc 0121     		movs	r1, #1
 381 01be 0DF14E00 		add	r0, sp, #78
 382              	.LVL35:
 234:main.c        ****                                               sizeof( subcommand_code ),
 383              		.loc 1 234 22 view .LVU130
 384 01c2 FFF7FEFF 		bl	usb_receive
 385              	.LVL36:
 239:main.c        **** 					{
 386              		.loc 1 239 5 is_stmt 1 view .LVU131
 239:main.c        **** 					{
 387              		.loc 1 239 8 is_stmt 0 view .LVU132
 388 01c6 60B9     		cbnz	r0, .L19
 242:main.c        **** 
 389              		.loc 1 242 9 is_stmt 1 view .LVU133
 242:main.c        **** 
 390              		.loc 1 242 22 is_stmt 0 view .LVU134
 391 01c8 9DF84E00 		ldrb	r0, [sp, #78]	@ zero_extendqisi2
 392              	.LVL37:
 242:main.c        **** 
 393              		.loc 1 242 22 view .LVU135
 394 01cc FFF7FEFF 		bl	ign_cmd_execute
 395              	.LVL38:
 242:main.c        **** 
 396              		.loc 1 242 20 view .LVU136
 397 01d0 8DF80300 		strb	r0, [sp, #3]
 245:main.c        **** 								  sizeof( ign_status ), 
 398              		.loc 1 245 6 is_stmt 1 view .LVU137
 399 01d4 0A22     		movs	r2, #10
 400 01d6 0121     		movs	r1, #1
 401 01d8 0DF10300 		add	r0, sp, #3
 402 01dc FFF7FEFF 		bl	usb_transmit
 403              	.LVL39:
 404 01e0 85E7     		b	.L9
 405              	.LVL40:
 406              	.L19:
 252:main.c        **** 				    }
 407              		.loc 1 252 9 view .LVU138
 408 01e2 FFF7FEFF 		bl	Error_Handler
 409              	.LVL41:
 410              	.L11:
 262:main.c        ****                                               sizeof( subcommand_code ),
 411              		.loc 1 262 5 view .LVU139
 262:main.c        ****                                               sizeof( subcommand_code ),
 412              		.loc 1 262 22 is_stmt 0 view .LVU140
 413 01e6 0A22     		movs	r2, #10
 414 01e8 0121     		movs	r1, #1
 415 01ea 0DF14E00 		add	r0, sp, #78
 416              	.LVL42:
 262:main.c        ****                                               sizeof( subcommand_code ),
 417              		.loc 1 262 22 view .LVU141
 418 01ee FFF7FEFF 		bl	usb_receive
 419              	.LVL43:
ARM GAS  /tmp/cc1OoLLb.s 			page 20


 267:main.c        **** 					{
 420              		.loc 1 267 5 is_stmt 1 view .LVU142
 267:main.c        **** 					{
 421              		.loc 1 267 8 is_stmt 0 view .LVU143
 422 01f2 88B9     		cbnz	r0, .L20
 269:main.c        **** 			                                          &flash_handle );
 423              		.loc 1 269 6 is_stmt 1 view .LVU144
 269:main.c        **** 			                                          &flash_handle );
 424              		.loc 1 269 21 is_stmt 0 view .LVU145
 425 01f4 0FA9     		add	r1, sp, #60
 426 01f6 9DF84E00 		ldrb	r0, [sp, #78]	@ zero_extendqisi2
 427              	.LVL44:
 269:main.c        **** 			                                          &flash_handle );
 428              		.loc 1 269 21 view .LVU146
 429 01fa FFF7FEFF 		bl	flash_cmd_execute
 430              	.LVL45:
 269:main.c        **** 			                                          &flash_handle );
 431              		.loc 1 269 19 view .LVU147
 432 01fe 8DF84D00 		strb	r0, [sp, #77]
 279:main.c        ****                                                sizeof( flash_status ),
 433              		.loc 1 279 5 is_stmt 1 view .LVU148
 279:main.c        ****                                                sizeof( flash_status ),
 434              		.loc 1 279 22 is_stmt 0 view .LVU149
 435 0202 0A22     		movs	r2, #10
 436 0204 0121     		movs	r1, #1
 437 0206 0DF14D00 		add	r0, sp, #77
 438 020a FFF7FEFF 		bl	usb_transmit
 439              	.LVL46:
 283:main.c        **** 					{
 440              		.loc 1 283 5 is_stmt 1 view .LVU150
 283:main.c        **** 					{
 441              		.loc 1 283 8 is_stmt 0 view .LVU151
 442 020e 0028     		cmp	r0, #0
 443 0210 3FF46DAF 		beq	.L9
 286:main.c        **** 					}
 444              		.loc 1 286 6 is_stmt 1 view .LVU152
 445 0214 FFF7FEFF 		bl	Error_Handler
 446              	.LVL47:
 447              	.L20:
 275:main.c        **** 					}
 448              		.loc 1 275 6 view .LVU153
 449 0218 FFF7FEFF 		bl	Error_Handler
 450              	.LVL48:
 451              	.L10:
 295:main.c        **** 				}
 452              		.loc 1 295 5 view .LVU154
 453 021c FFF7FEFF 		bl	led_error_assert
 454              	.LVL49:
 295:main.c        **** 				}
 455              		.loc 1 295 5 is_stmt 0 view .LVU155
 456 0220 65E7     		b	.L9
 457              		.cfi_endproc
 458              	.LFE144:
 460              		.global	huart6
 461 0222 00BF     		.section	.bss.huart6,"aw",%nobits
 462              		.align	2
 465              	huart6:
ARM GAS  /tmp/cc1OoLLb.s 			page 21


 466 0000 00000000 		.space	144
 466      00000000 
 466      00000000 
 466      00000000 
 466      00000000 
 467              		.global	htim4
 468              		.section	.bss.htim4,"aw",%nobits
 469              		.align	2
 472              	htim4:
 473 0000 00000000 		.space	76
 473      00000000 
 473      00000000 
 473      00000000 
 473      00000000 
 474              		.global	hspi2
 475              		.section	.bss.hspi2,"aw",%nobits
 476              		.align	2
 479              	hspi2:
 480 0000 00000000 		.space	136
 480      00000000 
 480      00000000 
 480      00000000 
 480      00000000 
 481              		.global	hsd1
 482              		.section	.bss.hsd1,"aw",%nobits
 483              		.align	2
 486              	hsd1:
 487 0000 00000000 		.space	124
 487      00000000 
 487      00000000 
 487      00000000 
 487      00000000 
 488              		.global	hi2c2
 489              		.section	.bss.hi2c2,"aw",%nobits
 490              		.align	2
 493              	hi2c2:
 494 0000 00000000 		.space	76
 494      00000000 
 494      00000000 
 494      00000000 
 494      00000000 
 495              		.global	hi2c1
 496              		.section	.bss.hi2c1,"aw",%nobits
 497              		.align	2
 500              	hi2c1:
 501 0000 00000000 		.space	76
 501      00000000 
 501      00000000 
 501      00000000 
 501      00000000 
 502              		.text
 503              	.Letext0:
 504              		.file 3 "/usr/arm-none-eabi/include/machine/_default_types.h"
 505              		.file 4 "/usr/arm-none-eabi/include/sys/_stdint.h"
 506              		.file 5 "../../../lib/Drivers/CMSIS/Device/ST/STM32H7xx/Include/stm32h750xx.h"
 507              		.file 6 "/usr/lib/gcc/arm-none-eabi/12.2.0/include/stddef.h"
 508              		.file 7 "../../../lib/Drivers/STM32H7xx_HAL_Driver/Inc/stm32h7xx_hal_def.h"
ARM GAS  /tmp/cc1OoLLb.s 			page 22


 509              		.file 8 "../../../lib/Drivers/STM32H7xx_HAL_Driver/Inc/stm32h7xx_hal_dma.h"
 510              		.file 9 "../../../lib/Drivers/STM32H7xx_HAL_Driver/Inc/stm32h7xx_hal_i2c.h"
 511              		.file 10 "../../../lib/Drivers/STM32H7xx_HAL_Driver/Inc/stm32h7xx_ll_sdmmc.h"
 512              		.file 11 "../../../lib/Drivers/STM32H7xx_HAL_Driver/Inc/stm32h7xx_hal_sd.h"
 513              		.file 12 "../../../lib/Drivers/STM32H7xx_HAL_Driver/Inc/stm32h7xx_hal_spi.h"
 514              		.file 13 "../../../lib/Drivers/STM32H7xx_HAL_Driver/Inc/stm32h7xx_hal_tim.h"
 515              		.file 14 "../../../lib/Drivers/STM32H7xx_HAL_Driver/Inc/stm32h7xx_hal_uart.h"
 516              		.file 15 "../../../lib/sdr_pin_defines_A0002.h"
 517              		.file 16 "../../../mod/baro/baro.h"
 518              		.file 17 "../../../mod/imu/imu.h"
 519              		.file 18 "../../../mod/sensor/sensor.h"
 520              		.file 19 "../../../mod/flash/flash.h"
 521              		.file 20 "../../../mod/ignition/ignition.h"
 522              		.file 21 "../../../mod/led/led.h"
 523              		.file 22 "../../../mod/usb/usb.h"
 524              		.file 23 "../../../mod/commands/commands.h"
 525              		.file 24 "../../../lib/FATFS/App/fatfs.h"
 526              		.file 25 "../../../init/init.h"
 527              		.file 26 "../../../lib/Drivers/STM32H7xx_HAL_Driver/Inc/stm32h7xx_hal.h"
ARM GAS  /tmp/cc1OoLLb.s 			page 23

